(lp0
((lp1
S'great'
p2
aS'positive'
p3
tp4
a((lp5
S'good'
p6
aS'positive'
p7
tp8
a((lp9
S'wide'
p10
aS'good'
p11
aS'resolution'
p12
aS'positive'
p13
tp14
a((lp15
S'play'
p16
aS'quality'
p17
aS'flawlessly'
p18
aS'really good'
p19
aS'positive'
p20
tp21
a((lp22
S'quick'
p23
aS'huge'
p24
aS'comes'
p25
aS'charger'
p26
aS'positive'
p27
tp28
a((lp29
S'locks'
p30
aS'accuracy'
p31
aS'positive'
p32
tp33
a((lp34
S'gret'
p35
aS'good'
p36
aS'value'
p37
aS'positive'
p38
tp39
a((lp40
S'very great'
p41
aS'positive'
p42
tp43
a((lp44
S'very powerful'
p45
aS'positive'
p46
tp47
a((lp48
S'expand'
p49
aS'positive'
p50
tp51
a((lp52
S'beautiful'
p53
aS'positive'
p54
tp55
a((lp56
S'good'
p57
aS'positive'
p58
tp59
a((lp60
S'powerful'
p61
aS'positive'
p62
tp63
a((lp64
S'expandable'
p65
aS'positive'
p66
tp67
a((lp68
S'wonderful'
p69
aS'positive'
p70
tp71
a((lp72
S'sharp'
p73
aS'optimized'
p74
aS'good'
p75
aS'crisp'
p76
aS'instant'
p77
aS'positive'
p78
tp79
a((lp80
S'soothing'
p81
aS'positive'
p82
tp83
a((lp84
S'not'
p85
aS'very bright'
p86
aS'positive'
p87
tp88
a((lp89
S'adequate'
p90
aS'conditions'
p91
aS'dead'
p92
aS'fast'
p93
aS'positive'
p94
tp95
a((lp96
S'edge'
p97
aS'fast'
p98
aS'positive'
p99
tp100
a((lp101
S'good'
p102
aS'speed'
p103
aS'superfast'
p104
aS'positive'
p105
tp106
a((lp107
S'awesome'
p108
aS'really worth'
p109
aS'positive'
p110
tp111
a((lp112
S'beat'
p113
aS'none'
p114
aS'guys'
p115
aS'positive'
p116
tp117
a((lp118
S'lags'
p119
aS'best'
p120
aS'superb'
p121
aS'positive'
p122
tp123
a((lp124
S'best'
p125
aS'positive'
p126
tp127
a((lp128
S'not'
p129
aS'not used'
p130
aS'excellent'
p131
aS'positive'
p132
tp133
a((lp134
S'great'
p135
aS'challenge'
p136
aS'positive'
p137
tp138
a((lp139
S'knock'
p140
aS'great'
p141
aS'positive'
p142
tp143
a((lp144
S'definitely appreciate'
p145
aS'definitely'
p146
aS'positive'
p147
tp148
a((lp149
S'good'
p150
aS'positive'
p151
tp152
a((lp153
S'fantastic'
p154
aS'positive'
p155
tp156
a((lp157
S'specification'
p158
aS'good'
p159
aS'positive'
p160
tp161
a((lp162
S'also good'
p163
aS'positive'
p164
tp165
a((lp166
S'great'
p167
aS'positive'
p168
tp169
a((lp170
S'good'
p171
aS'positive'
p172
tp173
a((lp174
S's'
p175
aS'good'
p176
aS'positive'
p177
tp178
a((lp179
S'fix'
p180
aS'fixed'
p181
aS'positive'
p182
tp183
a((lp184
S'using'
p185
aS'awesome'
p186
aS'classy'
p187
aS'response'
p188
aS'excellent'
p189
aS'positive'
p190
tp191
a((lp192
S'heat'
p193
aS'good'
p194
aS'problem'
p195
aS'positive'
p196
tp197
a((lp198
S'good'
p199
aS'positive'
p200
tp201
a((lp202
S'good'
p203
aS'value'
p204
aS'positive'
p205
tp206
a((lp207
S'design'
p208
aS'quality'
p209
aS'build'
p210
aS'excellent'
p211
aS'positive'
p212
tp213
a((lp214
S'good'
p215
aS'excellent'
p216
aS'positive'
p217
tp218
a((lp219
S'problem'
p220
aS'response'
p221
aS'excellent'
p222
aS'positive'
p223
tp224
a((lp225
S'nice'
p226
aS'positive'
p227
tp228
a((lp229
S'gaming'
p230
aS'good'
p231
aS'nice'
p232
aS'positive'
p233
tp234
a((lp235
S'great'
p236
aS'bargain'
p237
aS'positive'
p238
tp239
a((lp240
S'very good'
p241
aS'positive'
p242
tp243
a((lp244
S'very good'
p245
aS'heating'
p246
aS'positive'
p247
tp248
a((lp249
S'very thin'
p250
aS'handle'
p251
aS'easy'
p252
aS'elegant'
p253
aS'positive'
p254
tp255
a((lp256
S'tough'
p257
ag175
aS'importantly'
p258
aS'positive'
p259
tp260
a((lp261
S'excellent'
p262
aS'positive'
p263
tp264
a((lp265
S'loved'
p266
aS'to.price'
p267
aS'positive'
p268
tp269
a((lp270
S'amazing'
p271
aS'positive'
p272
tp273
a((lp274
S'super'
p275
aS'cool'
p276
aS'positive'
p277
tp278
a((lp279
S'amazing'
p280
aS'positive'
p281
tp282
a((lp283
S'too good'
p284
aS'positive'
p285
tp286
a((lp287
S'asset'
p288
aS'almost full'
p289
aS'positive'
p290
tp291
a((lp292
S'amazingly'
p293
aS'fast'
p294
aS'positive'
p295
tp296
a((lp297
S'not get'
p298
aS'not'
p299
aS'asset'
p300
aS'mobiles'
p301
aS'positive'
p302
tp303
a((lp304
S'very quick'
p305
aS'positive'
p306
tp307
a((lp308
S'deplete'
p309
aS'positive'
p310
tp311
a((lp312
S'control'
p313
aS'so handy'
p314
aS'larger'
p315
aS'volume'
p316
aS'displays'
p317
aS'button'
p318
aS'positive'
p319
tp320
a((lp321
S'design'
p322
aS'ultimate'
p323
aS'positive'
p324
tp325
a((lp326
S'mm'
p327
aS'close'
p328
aS'hold'
p329
aS'edges'
p330
aS'very easy'
p331
aS'positive'
p332
tp333
a((lp334
S'gaming'
p335
aS'perfomance'
p336
aS'excellent'
p337
aS'positive'
p338
tp339
a((lp340
S'good'
p341
aS'very smooth'
p342
aS'lots'
p343
aS'lag'
p344
aS'free'
p345
aS'looking'
p346
aS'ui'
p347
aS'customization'
p348
aS'positive'
p349
tp350
a((lp351
S'depatment'
p352
aS'customization'
p353
aS'positive'
p354
tp355
a((lp356
S'charges'
p357
aS'charger'
p358
aS'supported'
p359
aS'fast'
p360
aS'comes'
p361
aS'positive'
p362
tp363
a((lp364
S'available'
p365
aS'playstore'
p366
aS'instant'
p367
aS'updates'
p368
aS'positive'
p369
tp370
a((lp371
S'issue'
p372
aS'drop'
p373
aS'fortunatetly'
p374
aS'call'
p375
aS'device'
p376
aS'quality'
p377
aS'nice'
p378
aS'positive'
p379
tp380
a((lp381
S'metallic'
p382
aS'very premium'
p383
aS'looks'
p384
aS'finishing'
p385
aS'unique'
p386
aS'class'
p387
aS'positive'
p388
tp389
a((lp390
S'multitasking'
p391
aS'very good'
p392
aS'very rare'
p393
aS'mobiles'
p394
aS'positive'
p395
tp396
a((lp397
S'good'
p398
aS'support'
p399
aS'fast'
p400
aS'ofline'
p401
aS'solved'
p402
aS'thankks'
p403
aS'not'
p404
aS'data'
p405
aS'not using'
p406
aS'positive'
p407
tp408
a((lp409
S'good'
p410
aS'downloading'
p411
aS'speed'
p412
aS'very good'
p413
aS'amazing'
p414
aS'positive'
p415
tp416
a((lp417
S'whcih'
p418
aS'avilable'
p419
aS'good'
p420
aS'very useful'
p421
aS'well'
p422
aS'customized'
p423
aS'fast'
p424
aS'quality'
p425
aS'positive'
p426
tp427
a((lp428
S'best'
p429
aS'ever used'
p430
aS'positive'
p431
tp432
a((lp433
S'beast'
p434
aS'absolute'
p435
aS'positive'
p436
tp437
a((lp438
S'flawlessly'
p439
aS'mbps'
p440
aS'work'
p441
aS'airtel'
p442
aS'device'
p443
aS'speed'
p444
aS'speeds'
p445
aS'positive'
p446
tp447
a((lp448
S'makes'
p449
aS'lag'
p450
aS'multi-tasking'
p451
aS'discover'
p452
aS'beast'
p453
aS'massive'
p454
aS'extremely snappy'
p455
aS'extremely'
p456
aS'positive'
p457
tp458
a((lp459
S'better'
p460
aS'beast'
p461
aS'amazing'
p462
aS'phones'
p463
aS'positive'
p464
tp465
a((lp466
S'equalizer'
p467
aS'good'
p468
aS'built'
p469
aS'better'
p470
aS'really sounds'
p471
aS'device'
p472
aS'positive'
p473
tp474
a((lp475
S'amazing'
p476
aS'extremely'
p477
aS'extremely crisp'
p478
aS'positive'
p479
tp480
a((lp481
S'heavy'
p482
aS'love'
p483
aS'lasts'
p484
aS'charges'
p485
aS'decent'
p486
aS'usage'
p487
aS'really fast'
p488
aS'pretty'
p489
aS'device'
p490
aS'positive'
p491
tp492
a((lp493
S'user'
p494
aS'normal'
p495
aS'positive'
p496
tp497
a((lp498
S'most trusted'
p499
aS'goods'
p500
aS"n't disappoint"
p501
aS'brand'
p502
aS"n't"
p503
aS'amazing'
p504
aS'always been'
p505
aS'electronic'
p506
aS'positive'
p507
tp508
a((lp509
S'good'
p510
aS'positive'
p511
tp512
a((lp513
S'far looks'
p514
aS'positive'
p515
tp516
a((lp517
S'operating'
p518
aS'very helpful'
p519
aS'v. good'
p520
aS'v'
p521
aS'positive'
p522
tp523
a((lp524
S'very useful'
p525
aS'positive'
p526
tp527
a((lp528
S'rocker'
p529
aS'switches'
p530
aS'good'
p531
aS'vol'
p532
aS'themes'
p533
aS'operate'
p534
aS'once done'
p535
aS'nice'
p536
aS'positive'
p537
tp538
a((lp539
S'+'
p540
aS'configuration'
p541
aS'sufficient'
p542
aS'positive'
p543
tp544
a((lp545
S'fast'
p546
aS'fast charging'
p547
aS'comes'
p548
aS'technology'
p549
aS'best'
p550
aS'details'
p551
aS'positive'
p552
tp553
a((lp554
S'pleasant'
p555
aS'surprise'
p556
aS'positive'
p557
tp558
a((lp559
S'very low'
p560
aS'good'
p561
aS'heats'
p562
aS'excellent'
p563
aS'positive'
p564
tp565
a((lp566
S'read'
p567
aS'sufficently'
p568
aS'sufficently loud'
p569
aS'contrary'
p570
aS'buying'
p571
aS'positive'
p572
tp573
a((lp574
S'detailed'
p575
aS'positive'
p576
tp577
a((lp578
S'crisp'
p579
aS'beats'
p580
aS'resolution'
p581
aS'displays'
p582
aS'positive'
p583
tp584
a((lp585
S'function'
p586
aS'dropdown'
p587
aS'menu'
p588
aS'zenfone'
p589
aS'killing'
p590
aS'job'
p591
aS'boost'
p592
aS'positive'
p593
tp594
a((lp595
S'better'
p596
aS'cz'
p597
aS'cores'
p598
aS'cyanogen'
p599
aS'mod'
p600
aS'positive'
p601
tp602
a((lp603
S'photography'
p604
aS'especially low'
p605
aS'please'
p606
aS'especially'
p607
aS'lover'
p608
aS'positive'
p609
tp610
a((lp611
S'op2'
p612
aS'experience'
p613
aS'moto'
p614
aS'better'
p615
aS'low'
p616
aS'xplay'
p617
aS'best'
p618
aS'positive'
p619
tp620
a((lp621
S'best/perfect'
p622
aS'fs'
p623
aS'right'
p624
aS'market'
p625
aS'positive'
p626
tp627
a((lp628
S've'
p629
aS'devices'
p630
aS'mark'
p631
aS'words'
p632
aS'device'
p633
aS'using'
p634
aS'best'
p635
aS'positive'
p636
tp637
a((lp638
S'capture'
p639
aS'super'
p640
aS'image'
p641
aS'low'
p642
aS'sensor'
p643
aS'best'
p644
aS'positive'
p645
tp646
a((lp647
S'device'
p648
aS'elegant'
p649
aS'looks'
p650
aS'positive'
p651
tp652
a((lp653
S'so swift'
p654
aS'positive'
p655
tp656
a((lp657
S'awesome'
p658
aS'quality'
p659
aS'positive'
p660
tp661
a((lp662
S'regarding'
p663
aS've'
p664
aS'read'
p665
aS'quality'
p666
aS'completely'
p667
aS'reviews'
p668
aS'bad'
p669
aS'completely ignored'
p670
aS'positive'
p671
tp672
a((lp673
S'efficient'
p674
aS'positive'
p675
tp676
a((lp677
S'also good'
p678
aS'quality'
p679
aS'positive'
p680
tp681
a((lp682
S've'
p683
aS'device'
p684
aS'now i'
p685
aS'not'
p686
aS'problem'
p687
aS'not encountered'
p688
aS'positive'
p689
tp690
a((lp691
S'opt'
p692
aS'positive'
p693
tp694
a((lp695
S'hassle'
p696
aS'free'
p697
aS'replacement'
p698
aS'positive'
p699
tp700
a((lp701
S'color'
p702
aS'great'
p703
aS'good'
p704
aS'design'
p705
aS'combo'
p706
aS'positive'
p707
tp708
a((lp709
S'octa-core'
p710
aS'top'
p711
aS'shooter'
p712
aS'specifications'
p713
aS'line'
p714
aS'rear'
p715
aS'positive'
p716
tp717
a((lp718
S'epic'
p719
aS'positive'
p720
tp721
a((lp722
S'recording'
p723
aS'just outstanding'
p724
aS'positive'
p725
tp726
a((lp727
S'good'
p728
aS'positive'
p729
tp730
a((lp731
S'brilliant'
p732
aS'pictures'
p733
aS'main'
p734
aS'positive'
p735
tp736
a((lp737
S'decent'
p738
aS'positive'
p739
tp740
a((lp741
S'enjoying'
p742
aS'am'
p743
aS'positive'
p744
tp745
a((lp746
S'good'
p747
aS'positive'
p748
tp749
a((lp750
S'awesome'
p751
aS'positive'
p752
tp753
a((lp754
S'not'
p755
aS'not hangs'
p756
aS'positive'
p757
tp758
a((lp759
S'interface'
p760
aS'user'
p761
aS'nice'
p762
aS'positive'
p763
tp764
a((lp765
S'great'
p766
aS'never let'
p767
aS'very slim'
p768
aS'brand'
p769
aS'handy'
p770
aS'down.a'
p771
aS'looks..keep'
p772
aS'image'
p773
aS'htc'
p774
aS'awesome'
p775
aS'positive'
p776
tp777
a((lp778
S'great'
p779
aS'inspite'
p780
aS'low'
p781
aS'memory'
p782
aS'positive'
p783
tp784
a((lp785
S'great'
p786
aS'positive'
p787
tp788
a((lp789
S'satisfied'
p790
aS'positive'
p791
tp792
a((lp793
S'htc'
p794
aS'extremely good'
p795
aS'looks'
p796
aS'expected'
p797
aS'extremely'
p798
aS'build'
p799
aS'positive'
p800
tp801
a((lp802
S'gaming'
p803
aS'stretch'
p804
aS'not heat'
p805
aS'usage'
p806
aS'not'
p807
aS'net'
p808
aS'positive'
p809
tp810
a((lp811
S'very good'
p812
aS'positive'
p813
tp814
a((lp815
S'soo good'
p816
aS'soo'
p817
aS'positive'
p818
tp819
a((lp820
S'so happy'
p821
aS'finally'
p822
aS'chose'
p823
aS'finally i'
p824
aS'positive'
p825
tp826
a((lp827
S'smooth'
p828
aS'most important'
p829
aS'amazing'
p830
aS'looks'
p831
aS'quality'
p832
aS'nice'
p833
aS'positive'
p834
tp835
a((lp836
S'still have'
p837
aS'%'
p838
aS'cool'
p839
aS'great'
p840
aS'using'
p841
aS'left'
p842
aS'nice'
p843
aS'positive'
p844
tp845
a((lp846
S'also amazing'
p847
aS'amazing'
p848
aS'quality'
p849
aS'positive'
p850
tp851
a((lp852
S'untill'
p853
aS'also good..all'
p854
aS'days..and'
p855
aS'awesome'
p856
aS'negative'
p857
aS'front'
p858
aS'using'
p859
aS'back is'
p860
aS'best'
p861
aS'positive'
p862
tp863
a((lp864
S'not'
p865
aS'not hang'
p866
aS'positive'
p867
tp868
a((lp869
S'average.no'
p870
aS'average.no lag.good'
p871
aS'good.sound'
p872
aS'quality'
p873
aS'build'
p874
aS'positive'
p875
tp876
a((lp877
S'good'
p878
aS'budget'
p879
aS'positive'
p880
tp881
a((lp882
S'specifications'
p883
aS'very good'
p884
aS'budget'
p885
aS'positive'
p886
tp887
a((lp888
S'play'
p889
aS'good'
p890
aS'average'
p891
aS'just receive'
p892
aS'games'
p893
aS'user'
p894
aS'whatsapp'
p895
aS'positive'
p896
tp897
a((lp898
S'problem'
p899
aS'heating'
p900
aS'positive'
p901
tp902
a((lp903
S'compact'
p904
aS'good'
p905
aS'positive'
p906
tp907
a((lp908
S'using'
p909
aS'months'
p910
aS'complain'
p911
aS'positive'
p912
tp913
a((lp914
S'quickly rectified'
p915
aS'centre'
p916
aS'issues'
p917
aS'quickly'
p918
aS'positive'
p919
tp920
a((lp921
S'pathetic'
p922
aS'positive'
p923
tp924
a((lp925
S'combined'
p926
aS'value'
p927
aS'excellent'
p928
aS'positive'
p929
tp930
a((lp931
S'retina'
p932
aS'excellent'
p933
aS'positive'
p934
tp935
a((lp936
S'alternate'
p937
aS'ipod'
p938
aS'good'
p939
aS'quality'
p940
aS'positive'
p941
tp942
a((lp943
S'interface'
p944
aS'best'
p945
aS'ever used'
p946
aS'positive'
p947
tp948
a((lp949
S'better'
p950
aS'feel'
p951
aS'quality'
p952
aS'better build'
p953
aS'positive'
p954
tp955
a((lp956
S'superb'
p957
aS'positive'
p958
tp959
a((lp960
S'perfect'
p961
aS'design'
p962
aS'attractive'
p963
aS'looks'
p964
aS'positive'
p965
tp966
a((lp967
S'feel'
p968
aS'awesome'
p969
aS'handling'
p970
aS'positive'
p971
tp972
a((lp973
S'observed'
p974
aS'lags'
p975
aS'processing'
p976
aS'fast'
p977
aS'more stable'
p978
aS'positive'
p979
tp980
a((lp981
S'perfect'
p982
aS'inch'
p983
aS'good'
p984
aS'mobiles'
p985
aS'hates'
p986
aS'positive'
p987
tp988
a((lp989
S'sufficient'
p990
aS'memory'
p991
aS'positive'
p992
tp993
a((lp994
S'feel'
p995
aS'proud'
p996
aS'iphone'
p997
aS'great.i'
p998
aS'positive'
p999
tp1000
a((lp1001
S'sales'
p1002
aS'pathetic'
p1003
aS'negative'
p1004
tp1005
a((lp1006
S'purchase'
p1007
aS'fails'
p1008
aS'good'
p1009
aS'getting'
p1010
aS'normal'
p1011
aS'tortured'
p1012
ag175
aS'centre'
p1013
aS'negative'
p1014
tp1015
a((lp1016
S'purchase'
p1017
aS'motherboard'
p1018
aS'months'
p1019
aS'bad'
p1020
aS'completely'
p1021
aS'basic'
p1022
aS'problem'
p1023
aS'negative'
p1024
tp1025
a((lp1026
S'repairing'
p1027
aS'much higher'
p1028
aS'quoted'
p1029
aS'centre'
p1030
aS'negative'
p1031
tp1032
a((lp1033
S'motherboard'
p1034
aS'understand'
p1035
aS'surprising'
p1036
aS'negative'
p1037
tp1038
a((lp1039
S'not'
p1040
aS'not buy'
p1041
aS'recommend'
p1042
aS'negative'
p1043
tp1044
a((lp1045
S'never expected'
p1046
aS'negative'
p1047
tp1048
a((lp1049
S'eyes'
p1050
aS'very glossy'
p1051
aS'feels'
p1052
aS'bright'
p1053
aS'glossy'
p1054
aS'uncomfortable'
p1055
aS'outdoors'
p1056
aS'negative'
p1057
tp1058
a((lp1059
S'also suffers'
p1060
aS'lack'
p1061
aS'optimum'
p1062
aS'brightness'
p1063
aS'negative'
p1064
tp1065
a((lp1066
S'not'
p1067
aS'not upto'
p1068
aS'sensitivity'
p1069
aS'mark'
p1070
aS'negative'
p1071
tp1072
a((lp1073
S'interface'
p1074
aS'bit'
p1075
aS'buggy'
p1076
aS'user'
p1077
aS'calling'
p1078
aS'negative'
p1079
tp1080
a((lp1081
S'attending'
p1082
aS'troublesome'
p1083
aS'times'
p1084
aS'negative'
p1085
tp1086
a((lp1087
S'poor'
p1088
aS'connectivity'
p1089
aS'call'
p1090
aS'negative'
p1091
tp1092
a((lp1093
S'not'
p1094
aS'compass'
p1095
aS'so acurate'
p1096
aS'negative'
p1097
tp1098
a((lp1099
S'badly'
p1100
aS'badly disappointed'
p1101
aS'negative'
p1102
tp1103
a((lp1104
S'not'
p1105
aS'not great'
p1106
aS'sturdy'
p1107
aS"n't feel"
p1108
aS"n't"
p1109
aS'negative'
p1110
tp1111
a((lp1112
S'accessory'
p1113
aS'negative'
p1114
tp1115
a((lp1116
S'version'
p1117
aS'user accessible'
p1118
aS'user'
p1119
aS'purchased'
p1120
aS'negative'
p1121
tp1122
a((lp1123
S'back feel'
p1124
aS'slippery'
p1125
aS'glossy'
p1126
aS'negative'
p1127
tp1128
a((lp1129
S'heating'
p1130
aS'abruptly'
p1131
aS'negative'
p1132
tp1133
a((lp1134
S'stutter'
p1135
aS'negative'
p1136
tp1137
a((lp1138
S'freezing'
p1139
aS'negative'
p1140
tp1141
a((lp1142
S'restart disappointed'
p1143
aS'restart'
p1144
aS'centres'
p1145
aS'negative'
p1146
tp1147
a((lp1148
S'reflective'
p1149
aS'background'
p1150
aS'negative'
p1151
tp1152
a((lp1153
S'not'
p1154
aS'sunlight'
p1155
aS'glossy'
p1156
aS'not good'
p1157
aS'direct'
p1158
aS'negative'
p1159
tp1160
a((lp1161
S'colours'
p1162
aS'bit'
p1163
aS'washed'
p1164
aS'negative'
p1165
tp1166
a((lp1167
S'really need'
p1168
aS'dont'
p1169
aS'negative'
p1170
tp1171
a((lp1172
S'heavier'
p1173
aS'-at'
p1174
aS'weight'
p1175
aS'negative'
p1176
tp1177
a((lp1178
S'poor'
p1179
aS'star'
p1180
aS'reduced'
p1181
aS'negative'
p1182
tp1183
a((lp1184
S'regret'
p1185
aS'buying'
p1186
aS'negative'
p1187
tp1188
a((lp1189
S'interface'
p1190
aS'good'
p1191
aS'worst'
p1192
aS'negative'
p1193
tp1194
a((lp1195
S'just want'
p1196
aS'throw'
p1197
aS'times'
p1198
aS'negative'
p1199
tp1200
a((lp1201
S'reset'
p1202
aS'never gets'
p1203
aS'disconnected'
p1204
aS'times'
p1205
aS'solved'
p1206
aS'mater'
p1207
aS'call'
p1208
aS'sim'
p1209
aS'device'
p1210
aS'problem'
p1211
aS'drops'
p1212
aS'minutes'
p1213
aS'frequent'
p1214
aS'negative'
p1215
tp1216
a((lp1217
S'not'
p1218
aS'not available'
p1219
aS'negative'
p1220
tp1221
a((lp1222
S'not'
p1223
aS'properly'
p1224
aS'not working'
p1225
aS'devices'
p1226
aS'negative'
p1227
tp1228
a((lp1229
S'major'
p1230
aS'it..'
p1231
aS'disadvantages'
p1232
aS'devices'
p1233
ag175
aS'connect'
p1234
aS'negative'
p1235
tp1236
a((lp1237
S'box'
p1238
aS'dongle'
p1239
aS'reliance'
p1240
aS'not support'
p1241
aS'external'
p1242
aS'not'
p1243
aS'accessory'
p1244
aS'not sufficient'
p1245
aS'negative'
p1246
tp1247
a((lp1248
S'head'
p1249
aS'cable'
p1250
aS"n't include"
p1251
aS'otg'
p1252
aS"n't"
p1253
aS'ear'
p1254
aS'pouch'
p1255
aS'negative'
p1256
tp1257
a((lp1258
S'worst'
p1259
aS'negative'
p1260
tp1261
a((lp1262
S'started'
p1263
aS'months'
p1264
aS'problems'
p1265
aS'negative'
p1266
tp1267
a((lp1268
S'not'
p1269
aS'adapter'
p1270
aS'not charge'
p1271
aS'connected'
p1272
aS'negative'
p1273
tp1274
a((lp1275
S'started'
p1276
aS'again'
p1277
aS'issue'
p1278
aS'week'
p1279
aS'negative'
p1280
tp1281
a((lp1282
S'using'
p1283
aS'heat'
p1284
aS'good'
p1285
aS'appearance'
p1286
aS'negative'
p1287
tp1288
a((lp1289
S'issue'
p1290
aS'beginning'
p1291
aS'negative'
p1292
tp1293
a((lp1294
S'argued'
p1295
aS'failed'
p1296
aS'damaged'
p1297
aS'water'
p1298
aS'negative'
p1299
tp1300
a((lp1301
S'support'
p1302
aS'issue'
p1303
aS'email'
p1304
aS'response'
p1305
aS'negative'
p1306
tp1307
a((lp1308
S'not'
p1309
aS'not happy'
p1310
aS'sales'
p1311
aS'negative'
p1312
tp1313
a((lp1314
S'just leave'
p1315
aS'selling'
p1316
aS'hanging'
p1317
aS'negative'
p1318
tp1319
a((lp1320
S'headphone'
p1321
aS'negative'
p1322
tp1323
a((lp1324
S'better'
p1325
aS'negative'
p1326
tp1327
a((lp1328
S'too bright'
p1329
aS'image'
p1330
aS'flash'
p1331
aS'bad'
p1332
aS'low'
p1333
aS'quality'
p1334
aS'negative'
p1335
tp1336
a((lp1337
S'antutu'
p1338
aS'score'
p1339
aS'lagging'
p1340
aS'negative'
p1341
tp1342
a((lp1343
S'too low'
p1344
aS'placement'
p1345
aS'awkward'
p1346
aS'power'
p1347
aS'button'
p1348
aS'volume'
p1349
aS'negative'
p1350
tp1351
a((lp1352
S'very annoying'
p1353
aS'inspite'
p1354
aS'not expected'
p1355
aS'dissapointing'
p1356
aS'protection'
p1357
aS'corning'
p1358
aS'scratches'
p1359
aS'not'
p1360
aS'negative'
p1361
tp1362
a((lp1363
S'gaming'
p1364
aS'kind'
p1365
aS'faster'
p1366
aS'drains'
p1367
aS'dissapointment'
p1368
aS'bit'
p1369
aS'negative'
p1370
tp1371
a((lp1372
S'very high'
p1373
aS'heat'
p1374
aS'disadvantage'
p1375
aS'fast'
p1376
aS'tends'
p1377
aS'negative'
p1378
tp1379
a((lp1380
S'not'
p1381
aS'zenmotion'
p1382
aS'not working'
p1383
aS'screenshot'
p1384
aS'shake'
p1385
aS'negative'
p1386
tp1387
a((lp1388
S'application'
p1389
aS'confirmed'
p1390
aS'zenphone-2'
p1391
aS'normal'
p1392
aS'department'
p1393
aS'calling'
p1394
aS'ban'
p1395
aS'running'
p1396
aS'email'
p1397
aS'health'
p1398
aS'representative'
p1399
aS'expected'
p1400
aS'stating'
p1401
aS'flipkart'
p1402
aS'negative'
p1403
tp1404
a((lp1405
S'using'
p1406
ag175
aS'am'
p1407
aS'heating'
p1408
aS'iron'
p1409
aS'negative'
p1410
tp1411
a((lp1412
S'switched'
p1413
aS'very bad'
p1414
aS'access'
p1415
aS'application'
p1416
aS'6-7'
p1417
aS'off..'
p1418
aS'negative'
p1419
tp1420
a((lp1421
S'not'
p1422
aS'very much'
p1423
aS'excited'
p1424
aS'not met'
p1425
aS'expectation'
p1426
aS'negative'
p1427
tp1428
a((lp1429
S'draining'
p1430
aS'issue'
p1431
aS'negative'
p1432
tp1433
a((lp1434
S'issue'
p1435
aS'negative'
p1436
tp1437
a((lp1438
S'hardly use'
p1439
aS'drains'
p1440
aS'too fast'
p1441
aS'whatsapp'
p1442
aS'voice'
p1443
aS'hardly'
p1444
aS'negative'
p1445
tp1446
a((lp1447
S'twice'
p1448
aS'required'
p1449
aS'am'
p1450
aS'again'
p1451
aS'negative'
p1452
tp1453
a((lp1454
S'run'
p1455
aS'help'
p1456
aS'stopped'
p1457
aS'background'
p1458
aS'night'
p1459
aS'force'
p1460
aS'save'
p1461
aS'didnt'
p1462
aS'negative'
p1463
tp1464
a((lp1465
S'locked'
p1466
aS'spoke'
p1467
aS'unlocked'
p1468
aS'fully charged'
p1469
aS'single'
p1470
aS'strange'
p1471
aS'activity'
p1472
aS'drops'
p1473
aS'sim'
p1474
aS'negative'
p1475
tp1476
a((lp1477
S"n't"
p1478
aS'provided'
p1479
aS'particularly'
p1480
aS'keyboard'
p1481
aS'negative'
p1482
tp1483
a((lp1484
S'very difficult'
p1485
aS'correct'
p1486
aS'negative'
p1487
tp1488
a((lp1489
S'disappointing'
p1490
aS'device'
p1491
aS'type'
p1492
aS'negative'
p1493
tp1494
a((lp1495
S'not'
p1496
aS'mark'
p1497
aS'negative'
p1498
tp1499
a((lp1500
S'drains'
p1501
aS'standby'
p1502
aS'fast'
p1503
aS'improving'
p1504
aS'prudent'
p1505
aS'everyday'
p1506
aS'cycle'
p1507
aS'negative'
p1508
tp1509
a((lp1510
S'slight'
p1511
aS'lag'
p1512
aS'update'
p1513
aS'shutter'
p1514
aS'kitkat'
p1515
aS'not'
p1516
aS'amera'
p1517
aS'model'
p1518
aS'negative'
p1519
tp1520
a((lp1521
S'brightness'
p1522
aS'previously'
p1523
aS'auto'
p1524
aS'previously using'
p1525
aS'normal'
p1526
aS'esp'
p1527
aS'accustomed'
p1528
aS'usage'
p1529
aS'settings'
p1530
aS'negative'
p1531
tp1532
a((lp1533
S'experienced'
p1534
aS'restarted'
p1535
aS'couple'
p1536
aS'glitche..'
p1537
aS'ui'
p1538
aS'glitches'
p1539
aS'negative'
p1540
tp1541
a((lp1542
S'space'
p1543
aS'please'
p1544
aS'free'
p1545
aS"n't"
p1546
aS"n't buy"
p1547
aS'model'
p1548
aS'negative'
p1549
tp1550
a((lp1551
S'funny'
p1552
aS'sometimes behaves'
p1553
aS'sensor'
p1554
aS'sometimes'
p1555
aS'negative'
p1556
tp1557
a((lp1558
S'doze'
p1559
aS'marshmallows'
p1560
aS'fails'
p1561
aS'live'
p1562
aS'kind'
p1563
aS'negative'
p1564
tp1565
a((lp1566
S'website'
p1567
aS'box'
p1568
aS'cable'
p1569
aS'well'
p1570
aS'mentioned'
p1571
aS'data'
p1572
aS'negative'
p1573
tp1574
a((lp1575
S'not charging'
p1576
aS'i visited'
p1577
aS'centre'
p1578
aS'months'
p1579
aS'bugs'
p1580
aS'bad'
p1581
aS'contact'
p1582
aS'deletion'
p1583
aS'not'
p1584
aS'automatic'
p1585
aS'negative'
p1586
tp1587
a((lp1588
S'china'
p1589
aS'specification'
p1590
aS'quality'
p1591
aS'mp'
p1592
aS'vga'
p1593
aS'negative'
p1594
tp1595
a((lp1596
S'not'
p1597
aS'efficient'
p1598
aS'smartphone'
p1599
aS'negative'
p1600
tp1601
a((lp1602
S'lower'
p1603
aS'smartphone'
p1604
aS'colour'
p1605
aS'onyx'
p1606
aS'black'
p1607
aS'not'
p1608
aS'not impressive'
p1609
aS'model'
p1610
aS'negative'
p1611
tp1612
a((lp1613
S'not'
p1614
aS'new'
p1615
aS'very bad'
p1616
aS'negative'
p1617
tp1618
a((lp1619
S'not'
p1620
aS'good'
p1621
aS'negative'
p1622
tp1623
a((lp1624
S'not'
p1625
aS'picture'
p1626
aS'quality'
p1627
aS'mp'
p1628
aS'not good'
p1629
aS'negative'
p1630
tp1631
a((lp1632
S'not'
p1633
aS'letters'
p1634
aS'type'
p1635
aS'not good'
p1636
aS'negative'
p1637
tp1638
a((lp1639
S'volume'
p1640
aS'am'
p1641
aS'facing'
p1642
aS'call'
p1643
aS'low'
p1644
aS'problem'
p1645
aS'negative'
p1646
tp1647
a((lp1648
S'handset'
p1649
aS'volume'
p1650
aS'low'
p1651
aS'not'
p1652
aS'issue'
p1653
aS'not useful'
p1654
aS'negative'
p1655
tp1656
a((lp1657
S'forced'
p1658
aS'speaker'
p1659
aS'am'
p1660
aS'hear'
p1661
aS'pick'
p1662
aS'call'
p1663
aS'voice'
p1664
aS'activating'
p1665
aS'negative'
p1666
tp1667
a((lp1668
S'not'
p1669
aS'save'
p1670
aS'am'
p1671
aS'not able'
p1672
aS'contacts'
p1673
aS'negative'
p1674
tp1675
a((lp1676
S'not'
p1677
aS'not buy'
p1678
aS'please'
p1679
aS'negative'
p1680
tp1681
a((lp1682
S'very poor'
p1683
aS'very bad'
p1684
aS'camara'
p1685
aS'negative'
p1686
tp1687
a((lp1688
S'auto'
p1689
aS'problem'
p1690
aS'contact'
p1691
aS'delete'
p1692
aS'negative'
p1693
tp1694
a((lp1695
S'waste'
p1696
aS'dont'
p1697
aS'negative'
p1698
tp1699
a((lp1700
S"n't"
p1701
aS'cheap'
p1702
aS'looks'
p1703
aS"n't think"
p1704
aS'negative'
p1705
tp1706
a((lp1707
S'cut-off'
p1708
aS'negative'
p1709
tp1710
a((lp1711
S'buds'
p1712
aS'pain'
p1713
aS'cheap'
p1714
aS'negative'
p1715
tp1716
a((lp1717
S'cards'
p1718
aS'limited'
p1719
aS'connectivity'
p1720
aS'sim'
p1721
aS'4g'
p1722
aS'negative'
p1723
tp1724
a((lp1725
S'call'
p1726
aS'interference'
p1727
aS'hideous'
p1728
aS'quality'
p1729
aS'echoes'
p1730
aS'negative'
p1731
tp1732
a((lp1733
S'usb'
p1734
aS'working'
p1735
aS'drive'
p1736
aS'otg'
p1737
aS'not read'
p1738
aS'not'
p1739
aS'data'
p1740
aS'cable'
p1741
aS'tried'
p1742
aS'negative'
p1743
tp1744
a((lp1745
S'limited'
p1746
aS'speaker'
p1747
aS'boom'
p1748
aS'bottom'
p1749
aS'negative'
p1750
tp1751
a((lp1752
S'not'
p1753
aS'mark'
p1754
aS'negative'
p1755
tp1756
a((lp1757
S'fast'
p1758
aS'drains'
p1759
aS'negative'
p1760
tp1761
a((lp1762
S'at_user'
p1763
aS'sar'
p1764
aS'w/kg'
p1765
aS'negative'
p1766
tp1767
a((lp1768
S'not'
p1769
aS'not recommended'
p1770
aS'negative'
p1771
tp1772
a((lp1773
S'forced'
p1774
aS'sheer'
p1775
aS'review'
p1776
aS'am'
p1777
aS'write'
p1778
aS'bad'
p1779
aS'disappointment'
p1780
aS'unpleasantness'
p1781
aS'negative'
p1782
tp1783
a((lp1784
S'dialler'
p1785
aS'week'
p1786
aS'good'
p1787
aS'issues'
p1788
aS'negative'
p1789
tp1790
a((lp1791
S'return'
p1792
aS'thereby'
p1793
aS'am'
p1794
aS'period'
p1795
aS"n't"
p1796
aS'suffering'
p1797
aS"n't apply"
p1798
aS'device'
p1799
aS'negative'
p1800
tp1801
a((lp1802
S'dialler'
p1803
aS'reason'
p1804
aS'contacts'
p1805
aS'never appears'
p1806
aS'never get'
p1807
aS'negative'
p1808
tp1809
a((lp1810
S'actually disconnected'
p1811
aS'quite hard'
p1812
aS'lucky'
p1813
aS'actually'
p1814
aS'person'
p1815
ag175
aS'call'
p1816
aS'interface'
p1817
aS'times'
p1818
aS'minutes'
p1819
aS'negative'
p1820
tp1821
a((lp1822
S'delivered'
p1823
aS'am'
p1824
aS'quite dis-satisfied'
p1825
aS"n't"
p1826
aS"n't buy"
p1827
aS'recommend'
p1828
aS'quality'
p1829
aS'flipkart'
p1830
aS'negative'
p1831
tp1832
a((lp1833
S'initial'
p1834
aS'return'
p1835
aS'worse'
p1836
aS'experiencing'
p1837
aS'expires'
p1838
aS'period'
p1839
aS'fine'
p1840
aS'start'
p1841
aS'difficulties'
p1842
aS'makes'
p1843
aS'negative'
p1844
tp1845
a((lp1846
S'right'
p1847
aS'worse'
p1848
aS'sleeve'
p1849
aS'sometimes'
p1850
aS'urgent'
p1851
aS'so much'
p1852
aS'call'
p1853
aS'really disturbing'
p1854
aS'minutes'
p1855
aS'condition'
p1856
aS'negative'
p1857
tp1858
a((lp1859
S'again'
p1860
aS'right'
p1861
aS'purchase'
p1862
aS'before making'
p1863
aS'twice'
p1864
aS'item'
p1865
aS'online'
p1866
aS'i have'
p1867
aS'electronic'
p1868
aS'flipkart'
p1869
aS'negative'
p1870
tp1871
a((lp1872
S'waste'
p1873
aS'negative'
p1874
tp1875
a((lp1876
S'very good'
p1877
aS'only good'
p1878
aS'head'
p1879
ag175
aS'not'
p1880
aS'quality'
p1881
aS'negative'
p1882
tp1883
a((lp1884
S'so many'
p1885
aS'negative'
p1886
tp1887
a((lp1888
S'fast'
p1889
aS'drained'
p1890
aS'negative'
p1891
tp1892
a((lp1893
S'heating'
p1894
aS'negative'
p1895
tp1896
a((lp1897
S'drawbacks'
p1898
aS'hrs'
p1899
aS'negative'
p1900
tp1901
a((lp1902
S'carry'
p1903
aS'found'
p1904
aS'pocket'
p1905
aS'difficult'
p1906
aS'negative'
p1907
tp1908
a((lp1909
S'months'
p1910
aS'hang'
p1911
aS'liability'
p1912
aS'frequent'
p1913
aS'ups'
p1914
aS'issues'
p1915
aS'negative'
p1916
tp1917
a((lp1918
S'changes'
p1919
aS'ui'
p1920
aS'negative'
p1921
tp1922
a((lp1923
S'party'
p1924
aS'never bothered'
p1925
aS'health'
p1926
aS'keyboards..swype'
p1927
aS'crappy'
p1928
aS'negative'
p1929
tp1930
a((lp1931
S'not'
p1932
aS'os'
p1933
aS'single'
p1934
aS'honestly'
p1935
aS'worthy'
p1936
aS'negative'
p1937
tp1938
a((lp1939
S'only left'
p1940
aS'disappointing'
p1941
aS'very much'
p1942
aS'installing'
p1943
aS'negative'
p1944
tp1945
a((lp1946
S'pathetic'
p1947
aS'negative'
p1948
tp1949
a((lp1950
S'access'
p1951
aS'direct'
p1952
aS'inbuilt'
p1953
aS'pc'
p1954
aS'connecting'
p1955
aS'memory'
p1956
aS'negative'
p1957
tp1958
a((lp1959
S'so good'
p1960
aS'ok'
p1961
aS'drains'
p1962
aS'fast'
p1963
aS'not'
p1964
aS'using'
p1965
aS'negative'
p1966
tp1967
a((lp1968
S'usable'
p1969
aS'external'
p1970
aS'memory'
p1971
aS'expandable'
p1972
aS'comes'
p1973
aS'sd'
p1974
aS'neutral'
p1975
tp1976
a((lp1977
S'tablets'
p1978
aS'rest'
p1979
aS'neutral'
p1980
tp1981
a((lp1982
S'updated'
p1983
aS'jelly bean'
p1984
aS'jelly'
p1985
aS'fast'
p1986
aS'neutral'
p1987
tp1988
a((lp1989
S'easily'
p1990
aS'neutral'
p1991
tp1992
a((lp1993
S'button'
p1994
aS'3-4'
p1995
aS'pressing'
p1996
aS'call'
p1997
aS'connect'
p1998
aS'sec'
p1999
aS'neutral'
p2000
tp2001
a((lp2002
S'space'
p2003
aS'glonass'
p2004
aS'accuracy'
p2005
aS'neutral'
p2006
tp2007
a((lp2008
S"n't"
p2009
aS'please'
p2010
aS"n't forget"
p2011
aS'neutral'
p2012
tp2013
a((lp2014
S'ago'
p2015
aS'months'
p2016
aS'bought'
p2017
aS'neutral'
p2018
tp2019
a((lp2020
S'purchased'
p2021
aS'flipkart'
p2022
aS'neutral'
p2023
tp2024
a((lp2025
S'factor'
p2026
aS'nexus7'
p2027
aS'form'
p2028
aS'manufacturer'
p2029
aS'neutral'
p2030
tp2031
a((lp2032
S'memory'
p2033
aS'internal'
p2034
aS'worth'
p2035
aS'noticing'
p2036
aS'neutral'
p2037
tp2038
a((lp2039
S'version'
p2040
aS'neutral'
p2041
tp2042
a((lp2043
S'recommended'
p2044
aS'matte'
p2045
aS'neutral'
p2046
tp2047
a((lp2048
S'bit'
p2049
aS'starts'
p2050
aS'sometimes'
p2051
aS'smooth'
p2052
aS'heated'
p2053
aS'mkv'
p2054
aS'hanging'
p2055
aS'stutters'
p2056
aS'playing'
p2057
aS'neutral'
p2058
tp2059
a((lp2060
S'havent'
p2061
aS'here have'
p2062
aS'issues'
p2063
aS'people'
p2064
aS'neutral'
p2065
tp2066
a((lp2067
S'quality'
p2068
aS'somewhat'
p2069
aS'somewhat compromise'
p2070
aS'neutral'
p2071
tp2072
a((lp2073
S'required'
p2074
aS'business'
p2075
aS'neutral'
p2076
tp2077
a((lp2078
S'diwali'
p2079
aS'online'
p2080
aS'offer'
p2081
aS'store'
p2082
aS'bought'
p2083
aS'neutral'
p2084
tp2085
a((lp2086
S'not'
p2087
aS'tried'
p2088
aS'not resolved'
p2089
aS'neutral'
p2090
tp2091
a((lp2092
S'department'
p2093
aS'little'
p2094
aS'good'
p2095
aS'segment'
p2096
aS'gradation'
p2097
aS'neutral'
p2098
tp2099
a((lp2100
S'also good'
p2101
aS'stereo'
p2102
aS'quality'
p2103
aS'speakers'
p2104
aS'neutral'
p2105
tp2106
a((lp2107
S'updated'
p2108
aS'dont'
p2109
aS'playstore'
p2110
aS'ota'
p2111
aS'builtin'
p2112
aS'updates'
p2113
aS'wait'
p2114
aS'software'
p2115
aS'neutral'
p2116
tp2117
a((lp2118
S'great'
p2119
aS'ranged'
p2120
aS'mid'
p2121
aS'bad'
p2122
aS'not'
p2123
aS'quality'
p2124
aS'neutral'
p2125
tp2126
a((lp2127
S'better'
p2128
aS'return'
p2129
aS'advantage'
p2130
aS'brand'
p2131
aS"n't trust"
p2132
aS'commitment'
p2133
aS"n't"
p2134
aS'amazon'
p2135
aS'easy'
p2136
aS'policy'
p2137
aS'flipkart'
p2138
aS'neutral'
p2139
tp2140
a((lp2141
S'quality'
p2142
aS'good'
p2143
aS'worst'
p2144
aS'neutral'
p2145
tp2146
a((lp2147
S'especially'
p2148
aS'awkward'
p2149
aS'switched'
p2150
aS'feel'
p2151
aS'start'
p2152
aS'iphone'
p2153
aS'bit'
p2154
aS'neutral'
p2155
tp2156
a((lp2157
S'heavy'
p2158
aS'great'
p2159
aS'moment'
p2160
aS'lag'
p2161
aS'even running'
p2162
aS'very muuch'
p2163
aS'running'
p2164
aS'game'
p2165
aS'not'
p2166
aS'games'
p2167
aS'neutral'
p2168
tp2169
a((lp2170
S'not'
p2171
aS'fine'
p2172
aS'mp'
p2173
aS'neutral'
p2174
tp2175
a((lp2176
S'not'
p2177
aS'operate'
p2178
aS'issue'
p2179
aS'size'
p2180
aS'neutral'
p2181
tp2182
a((lp2183
S'good'
p2184
aS'particularly'
p2185
aS'average'
p2186
aS'sometimes'
p2187
aS'results'
p2188
aS'particularly good'
p2189
aS'sometimes v'
p2190
aS'low'
p2191
aS'pics'
p2192
aS'neutral'
p2193
tp2194
a((lp2195
S'depending'
p2196
aS'deactivate'
p2197
aS'data'
p2198
aS'well'
p2199
aS'pre-installed'
p2200
aS'not'
p2201
aS'advised'
p2202
aS'not advised'
p2203
aS'otherwise'
p2204
aS'active'
p2205
aS'choise'
p2206
aS'neutral'
p2207
tp2208
a((lp2209
S'bulky'
p2210
aS'good'
p2211
aS'lags'
p2212
aS'observed'
p2213
aS'downloaded'
p2214
aS'games'
p2215
aS'speed'
p2216
aS'neutral'
p2217
tp2218
a((lp2219
S'manage'
p2220
aS'efficient'
p2221
aS'drain'
p2222
aS'identify'
p2223
aS'neutral'
p2224
tp2225
a((lp2226
S'deducted'
p2227
aS'quality/'
p2228
aS'neutral'
p2229
tp2230
a((lp2231
S'quadcore'
p2232
aS'slightly bigger'
p2233
aS'slightly'
p2234
aS'neutral'
p2235
tp2236
a((lp2237
S'gaming'
p2238
aS'decent'
p2239
aS'pretty'
p2240
aS'graphics'
p2241
aS'neutral'
p2242
tp2243
a((lp2244
S'notice'
p2245
aS'requirement'
p2246
aS'mid'
p2247
aS'heating'
p2248
aS'dint'
p2249
aS'games'
p2250
aS'low'
p2251
aS'neutral'
p2252
tp2253
a((lp2254
S'really wont'
p2255
aS'clash'
p2256
aS'angry'
p2257
aS'smooth'
p2258
aS'surfer'
p2259
aS'dint'
p2260
aS'games'
p2261
aS'subway'
p2262
aS'install'
p2263
aS'shadow'
p2264
aS'run'
p2265
aS'clans'
p2266
aS'fight'
p2267
aS'birds'
p2268
aS'neutral'
p2269
tp2270
a((lp2271
S'installations'
p2272
aS'settings'
p2273
aS'routene'
p2274
aS'idle'
p2275
aS'usage'
p2276
aS'multitasking-'
p2277
aS'neutral'
p2278
tp2279
a((lp2280
S'prior'
p2281
aS'droid'
p2282
aS'gen'
p2283
aS'turbo'
p2284
aS'moto'
p2285
aS'neutral'
p2286
tp2287
a((lp2288
S'guaranteed'
p2289
aS'marshmallow'
p2290
aS'pure'
p2291
aS'updates'
p2292
aS'neutral'
p2293
tp2294
a((lp2295
S'box'
p2296
aS'nexsus'
p2297
aS'color'
p2298
aS'accessories'
p2299
aS'black'
p2300
aS'irrespective'
p2301
aS'white'
p2302
aS'assembled'
p2303
aS'contents'
p2304
aS'neutral'
p2305
tp2306
a((lp2307
S'shop'
p2308
aS'bought'
p2309
aS'neutral'
p2310
tp2311
a((lp2312
S'received'
p2313
aS'span'
p2314
aS've'
p2315
aS'neutral'
p2316
tp2317
a((lp2318
S'device'
p2319
aS'well packed'
p2320
aS'well'
p2321
aS'neutral'
p2322
tp2323
a((lp2324
S'dealing'
p2325
aS'shops'
p2326
aS'retail'
p2327
aS'prefer'
p2328
aS'neutral'
p2329
tp2330
a((lp2331
S'little'
p2332
aS'goes'
p2333
aS'flap'
p2334
aS'micro'
p2335
aS'device'
p2336
aS'sealed'
p2337
aS'cards'
p2338
aS'sim'
p2339
aS'sd'
p2340
aS'neutral'
p2341
tp2342
a((lp2343
S'exaggerated'
p2344
aS'colors'
p2345
aS'bit'
p2346
aS'looks'
p2347
aS'promising'
p2348
aS'neutral'
p2349
tp2350
a((lp2351
S'available'
p2352
aS'box'
p2353
aS'updates'
p2354
aS'kitkat'
p2355
aS'neutral'
p2356
tp2357
a((lp2358
S'guess'
p2359
aS'specs'
p2360
aS'expecting'
p2361
aS'bit'
p2362
aS'boasts'
p2363
aS'too much'
p2364
aS'neutral'
p2365
tp2366
a((lp2367
S'performer'
p2368
aS'decent'
p2369
aS"n't"
p2370
aS'call'
p2371
aS"n't found"
p2372
aS'serious'
p2373
aS'quality'
p2374
aS'issues'
p2375
aS'neutral'
p2376
tp2377
a((lp2378
S'good'
p2379
aS'speed'
p2380
aS'neutral'
p2381
tp2382
a((lp2383
S'fully charged'
p2384
aS'stands'
p2385
aS'neutral'
p2386
tp2387
a((lp2388
S'htc'
p2389
aS'preferred'
p2390
aS'neutral'
p2391
tp2392
a((lp2393
S'internal'
p2394
aS'user'
p2395
aS'memory'
p2396
aS'neutral'
p2397
tp2398
a((lp2399
S'using'
p2400
aS'weeks'
p2401
aS'neutral'
p2402
tp2403
a((lp2404
S'internal'
p2405
aS'low'
p2406
aS'memory'
p2407
aS'hence'
p2408
aS'bucks'
p2409
aS'cough'
p2410
aS'issue'
p2411
aS'neutral'
p2412
tp2413
a((lp2414
S'smart'
p2415
aS'happy'
p2416
aS'neutral'
p2417
tp2418
a((lp2419
S'users'
p2420
aS'companion'
p2421
aS'usage'
p2422
aS'definitely'
p2423
aS'low'
p2424
aS'not'
p2425
aS'very high'
p2426
aS'moderate'
p2427
aS'best'
p2428
aS'neutral'
p2429
tp2430
a((lp2431
S'available'
p2432
aS''
p2433
aS'approx'
p2434
aS'unwrap'
p2435
aS'mem'
p2436
aS'already installed'
p2437
aS'free'
p2438
aS'chrome'
p2439
aS'office5'
p2440
aS'internal'
p2441
aS'ect'
p2442
aS'polaris'
p2443
aS'='
p2444
aS'gmail'
p2445
aS'neutral'
p2446
tp2447
a((lp2448
S'popular'
p2449
aS'models'
p2450
aS'brand'
p2451
aS'neutral'
p2452
tp2453
a((lp2454
S'apply'
p2455
aS'sim'
p2456
aS'nano'
p2457
aS'neutral'
p2458
tp2459
a((lp2460
S'j7'
p2461
aS'htc'
p2462
aS'confused'
p2463
aS'neutral'
p2464
tp2465
a((lp2466
S'works'
p2467
aS'multiple'
p2468
aS'neutral'
p2469
tp2470
a((lp2471
S'box'
p2472
aS'good'
p2473
aS'htc'
p2474
aS'iron'
p2475
aS'.after'
p2476
aS"n't"
p2477
aS"n't buy"
p2478
aS'lte'
p2479
aS'act'
p2480
aS'using'
p2481
aS'neutral'
p2482
tp2483
a((lp2484
S'very poor.front'
p2485
aS'ok'
p2486
aS'rear'
p2487
aS'neutral'
p2488
tp2489
a((lp2490
S'good'
p2491
aS'improve'
p2492
aS'neutral'
p2493
tp2494
a((lp2495
S'slot'
p2496
aS'micro'
p2497
aS'based'
p2498
aS'sim'
p2499
aS'tray'
p2500
aS'neutral'
p2501
tp2502
a((lp2503
S'1500'
p2504
aS'market'
p2505
aS'bought'
p2506
aS'neutral'
p2507
tp2508
a((lp2509
S'always wanted'
p2510
aS'neutral'
p2511
tp2512
a((lp2513
S'tv'
p2514
aS'phones'
p2515
aS'never liked'
p2516
aS'screens'
p2517
aS'neutral'
p2518
tp2519
a((lp2520
S'looking'
p2521
aS'compact'
p2522
aS'reliable'
p2523
aS'good'
p2524
aS'neutral'
p2525
tp2526
a((lp2527
S'iphone'
p2528
aS'installed'
p2529
aS'neutral'
p2530
tp2531
a((lp2532
S'failure'
p2533
aS'neutral'
p2534
tp2535
a((lp2536
S'am'
p2537
aS'quiet'
p2538
aS'past'
p2539
aS'iphone'
p2540
aS'using'
p2541
aS'happy'
p2542
aS'neutral'
p2543
tp2544
a((lp2545
S'provided'
p2546
aS'thanks'
p2547
aS'am'
p2548
aS'quiet'
p2549
aS'experience'
p2550
aS'iphone'
p2551
aS'flipkart.com'
p2552
aS'apart'
p2553
aS'happy'
p2554
aS'neutral'
p2555
tp2556
a.