(lp0
((lp1
S'hey'
p2
aS'cici'
p3
aS'sweetheart'
p4
aS'just'
p5
aS'i'
p6
aS'luv'
p7
aS'oh'
p8
aS'mixtape'
p9
aS'drop'
p10
aS'soon'
p11
aS'fantasy'
p12
aS'ride'
p13
aS'may'
p14
aS'positive'
p15
tp16
a((lp17
S'i'
p18
aS'heard'
p19
aS'contest'
p20
aS'congrats'
p21
aS'girl'
p22
aS'positive'
p23
tp24
a((lp25
S'unc'
p26
aS'ncaa'
p27
aS'champs'
p28
aS'franklin'
p29
aS'i'
p30
aS'was'
p31
aS'there'
p32
aS'wild'
p33
aS'and'
p34
aS'crazy'
p35
aS'nothing'
p36
aS'positive'
p37
tp38
a((lp39
S'do'
p40
aS'share'
p41
aS'more'
p42
aS'jokes'
p43
aS'quotes'
p44
aS'music'
p45
aS'photos'
p46
aS'news'
p47
aS'articles'
p48
aS'facebook'
p49
aS'twitter'
p50
aS'neutral'
p51
tp52
a((lp53
S'good'
p54
aS'night'
p55
aS'twitter'
p56
aS'thelegionofthefallen'
p57
aS'cimes'
p58
aS'awfully'
p59
aS'neutral'
p60
tp61
a((lp62
S'i'
p63
aS'finished'
p64
aS'mi'
p65
aS'run'
p66
aS'pace'
p67
aS'gps'
p68
aS'nikeplus'
p69
aS'makeitcount'
p70
aS'neutral'
p71
tp72
a((lp73
S'disappointing'
p74
aS'day'
p75
aS'attended'
p76
aS'car'
p77
aS'boot'
p78
aS'sale'
p79
aS'raise'
p80
aS'funds'
p81
aS'sanctuary'
p82
aS'total'
p83
aS'entry'
p84
aS'fee'
p85
aS'sigh'
p86
aS'negative'
p87
tp88
a((lp89
S'taking'
p90
aS'irish'
p91
aS'car'
p92
aS'bombs'
p93
aS'strange'
p94
aS'australian'
p95
aS'women'
p96
aS'drink'
p97
aS'head'
p98
aS'hurts'
p99
aS'negative'
p100
tp101
a((lp102
S'just'
p103
aS'bloodwork'
p104
aS'my'
p105
aS'arm'
p106
aS'hurts'
p107
aS'negative'
p108
tp109
a.